; Function Attrs: mustprogress nounwind uwtable
define void @_ZN3zmq5own_tD2Ev(ptr noundef nonnull align 8 dereferenceable(1444) %this) unnamed_addr #3 align 2 personality ptr @__gxx_personality_v0 {
entry:
  store ptr getelementptr inbounds ({ [26 x ptr] }, ptr @_ZTVN3zmq5own_tE, i64 0, i32 0, i64 2), ptr %this, align 8
  %_owned = getelementptr inbounds i8, ptr %this, i64 1392
  %_M_parent.i.i.i.i = getelementptr inbounds i8, ptr %this, i64 1408
  %0 = load ptr, ptr %_M_parent.i.i.i.i, align 8
  invoke void @_ZNSt8_Rb_treeIPN3zmq5own_tES2_St9_IdentityIS2_ESt4lessIS2_ESaIS2_EE8_M_eraseEPSt13_Rb_tree_nodeIS2_E(ptr noundef nonnull align 8 dereferenceable(48) %_owned, ptr noundef %0)
          to label %_ZNSt3setIPN3zmq5own_tESt4lessIS2_ESaIS2_EED2Ev.exit unwind label %terminate.lpad.i.i

terminate.lpad.i.i:                               ; preds = %entry
  %1 = landingpad { ptr, i32 }
          catch ptr null
  %2 = extractvalue { ptr, i32 } %1, 0
  tail call void @__clang_call_terminate(ptr %2) #20
  unreachable

_ZNSt3setIPN3zmq5own_tESt4lessIS2_ESaIS2_EED2Ev.exit: ; preds = %entry
  %options = getelementptr inbounds i8, ptr %this, i64 24
  tail call void @_ZN3zmq9options_tD2Ev(ptr noundef nonnull align 8 dereferenceable(1336) %options) #16
  tail call void @_ZN3zmq8object_tD2Ev(ptr noundef nonnull align 8 dereferenceable(20) %this) #16
  ret void
}